; Function Attrs: mustprogress nounwind uwtable
define hidden void @_ZN3opt9totalizerD2Ev(ptr noundef nonnull align 8 dereferenceable(56) %this) unnamed_addr #4 align 2 personality ptr @__gxx_personality_v0 {
entry:
  %m_root = getelementptr inbounds i8, ptr %this, i64 24
  %0 = load ptr, ptr %m_root, align 8
  invoke void @_Z7deallocIN3opt9totalizer4nodeEEvPT_(ptr noundef %0)
          to label %invoke.cont unwind label %terminate.lpad

invoke.cont:                                      ; preds = %entry
  %m_defs = getelementptr inbounds i8, ptr %this, i64 48
  %1 = load ptr, ptr %m_defs, align 8
  %tobool.not.i.i = icmp eq ptr %1, null
  br i1 %tobool.not.i.i, label %_ZN6vectorISt4pairI7obj_refI4expr11ast_managerES4_ELb1EjED2Ev.exit, label %if.then.i.i

if.then.i.i:                                      ; preds = %invoke.cont
  invoke void @_ZN6vectorISt4pairI7obj_refI4expr11ast_managerES4_ELb1EjE16destroy_elementsEv(ptr noundef nonnull align 8 dereferenceable(8) %m_defs)
          to label %.noexc.i unwind label %terminate.lpad.i

.noexc.i:                                         ; preds = %if.then.i.i
  %2 = load ptr, ptr %m_defs, align 8
  %add.ptr.i.i.i = getelementptr inbounds i8, ptr %2, i64 -8
  invoke void @_ZN6memory10deallocateEPv(ptr noundef nonnull %add.ptr.i.i.i)
          to label %_ZN6vectorISt4pairI7obj_refI4expr11ast_managerES4_ELb1EjED2Ev.exit unwind label %terminate.lpad.i

terminate.lpad.i:                                 ; preds = %.noexc.i, %if.then.i.i
  %3 = landingpad { ptr, i32 }
          catch ptr null
  %4 = extractvalue { ptr, i32 } %3, 0
  tail call void @__clang_call_terminate(ptr %4) #14
  unreachable

_ZN6vectorISt4pairI7obj_refI4expr11ast_managerES4_ELb1EjED2Ev.exit: ; preds = %invoke.cont, %.noexc.i
  %m_clauses = getelementptr inbounds i8, ptr %this, i64 32
  %m_nodes.i.i = getelementptr inbounds i8, ptr %this, i64 40
  %5 = load ptr, ptr %m_nodes.i.i, align 8
  %cmp.i.i.i = icmp eq ptr %5, null
  br i1 %cmp.i.i.i, label %_ZN10ref_vectorI4expr11ast_managerED2Ev.exit, label %_ZNK6vectorIP4exprLb0EjE4sizeEv.exit.i.i

_ZNK6vectorIP4exprLb0EjE4sizeEv.exit.i.i:         ; preds = %_ZN6vectorISt4pairI7obj_refI4expr11ast_managerES4_ELb1EjED2Ev.exit
  %arrayidx.i.i.i = getelementptr inbounds i8, ptr %5, i64 -4
  %6 = load i32, ptr %arrayidx.i.i.i, align 4
  %7 = zext i32 %6 to i64
  %add.ptr.i.i = getelementptr inbounds ptr, ptr %5, i64 %7
  %cmp3.i.not.i.i = icmp eq i32 %6, 0
  br i1 %cmp3.i.not.i.i, label %if.then.i.i.i.i.i, label %for.body.i.i.i

for.body.i.i.i:                                   ; preds = %_ZNK6vectorIP4exprLb0EjE4sizeEv.exit.i.i, %_ZN15ref_vector_coreI4expr19ref_manager_wrapperIS0_11ast_managerEE7dec_refEPS0_.exit.i.i.i
  %it.04.i.i.i = phi ptr [ %incdec.ptr.i.i.i, %_ZN15ref_vector_coreI4expr19ref_manager_wrapperIS0_11ast_managerEE7dec_refEPS0_.exit.i.i.i ], [ %5, %_ZNK6vectorIP4exprLb0EjE4sizeEv.exit.i.i ]
  %8 = load ptr, ptr %it.04.i.i.i, align 8
  %9 = load ptr, ptr %m_clauses, align 8
  %tobool.not.i.i.i.i.i.i = icmp eq ptr %8, null
  br i1 %tobool.not.i.i.i.i.i.i, label %_ZN15ref_vector_coreI4expr19ref_manager_wrapperIS0_11ast_managerEE7dec_refEPS0_.exit.i.i.i, label %if.then.i.i.i.i.i.i

if.then.i.i.i.i.i.i:                              ; preds = %for.body.i.i.i
  %m_ref_count.i.i.i.i.i.i.i = getelementptr inbounds i8, ptr %8, i64 8
  %10 = load i32, ptr %m_ref_count.i.i.i.i.i.i.i, align 4
  %dec.i.i.i.i.i.i.i = add i32 %10, -1
  store i32 %dec.i.i.i.i.i.i.i, ptr %m_ref_count.i.i.i.i.i.i.i, align 4
  %cmp.i.i.i.i.i.i = icmp eq i32 %dec.i.i.i.i.i.i.i, 0
  br i1 %cmp.i.i.i.i.i.i, label %if.then2.i.i.i.i.i.i, label %_ZN15ref_vector_coreI4expr19ref_manager_wrapperIS0_11ast_managerEE7dec_refEPS0_.exit.i.i.i

if.then2.i.i.i.i.i.i:                             ; preds = %if.then.i.i.i.i.i.i
  invoke void @_ZN11ast_manager11delete_nodeEP3ast(ptr noundef nonnull align 8 dereferenceable(976) %9, ptr noundef nonnull %8)
          to label %_ZN15ref_vector_coreI4expr19ref_manager_wrapperIS0_11ast_managerEE7dec_refEPS0_.exit.i.i.i unwind label %terminate.lpad.i.i

_ZN15ref_vector_coreI4expr19ref_manager_wrapperIS0_11ast_managerEE7dec_refEPS0_.exit.i.i.i: ; preds = %if.then2.i.i.i.i.i.i, %if.then.i.i.i.i.i.i, %for.body.i.i.i
  %incdec.ptr.i.i.i = getelementptr inbounds i8, ptr %it.04.i.i.i, i64 8
  %cmp.i1.i.i = icmp ult ptr %incdec.ptr.i.i.i, %add.ptr.i.i
  br i1 %cmp.i1.i.i, label %for.body.i.i.i, label %invoke.cont6.i.i, !llvm.loop !4

invoke.cont6.i.i:                                 ; preds = %_ZN15ref_vector_coreI4expr19ref_manager_wrapperIS0_11ast_managerEE7dec_refEPS0_.exit.i.i.i
  %.pre.i.i = load ptr, ptr %m_nodes.i.i, align 8
  %tobool.not.i.i.i.i.i = icmp eq ptr %.pre.i.i, null
  br i1 %tobool.not.i.i.i.i.i, label %_ZN10ref_vectorI4expr11ast_managerED2Ev.exit, label %if.then.i.i.i.i.i

if.then.i.i.i.i.i:                                ; preds = %invoke.cont6.i.i, %_ZNK6vectorIP4exprLb0EjE4sizeEv.exit.i.i
  %11 = phi ptr [ %.pre.i.i, %invoke.cont6.i.i ], [ %5, %_ZNK6vectorIP4exprLb0EjE4sizeEv.exit.i.i ]
  %add.ptr.i.i.i.i.i.i = getelementptr inbounds i8, ptr %11, i64 -8
  invoke void @_ZN6memory10deallocateEPv(ptr noundef nonnull %add.ptr.i.i.i.i.i.i)
          to label %_ZN10ref_vectorI4expr11ast_managerED2Ev.exit unwind label %terminate.lpad.i.i.i.i

terminate.lpad.i.i.i.i:                           ; preds = %if.then.i.i.i.i.i
  %12 = landingpad { ptr, i32 }
          catch ptr null
  %13 = extractvalue { ptr, i32 } %12, 0
  tail call void @__clang_call_terminate(ptr %13) #14
  unreachable

terminate.lpad.i.i:                               ; preds = %if.then2.i.i.i.i.i.i
  %14 = landingpad { ptr, i32 }
          catch ptr null
  %15 = extractvalue { ptr, i32 } %14, 0
  tail call void @__clang_call_terminate(ptr %15) #14
  unreachable

_ZN10ref_vectorI4expr11ast_managerED2Ev.exit:     ; preds = %_ZN6vectorISt4pairI7obj_refI4expr11ast_managerES4_ELb1EjED2Ev.exit, %invoke.cont6.i.i, %if.then.i.i.i.i.i
  %m_literals = getelementptr inbounds i8, ptr %this, i64 8
  %m_nodes.i.i1 = getelementptr inbounds i8, ptr %this, i64 16
  %16 = load ptr, ptr %m_nodes.i.i1, align 8
  %cmp.i.i.i2 = icmp eq ptr %16, null
  br i1 %cmp.i.i.i2, label %_ZN10ref_vectorI4expr11ast_managerED2Ev.exit25, label %_ZNK6vectorIP4exprLb0EjE4sizeEv.exit.i.i3

_ZNK6vectorIP4exprLb0EjE4sizeEv.exit.i.i3:        ; preds = %_ZN10ref_vectorI4expr11ast_managerED2Ev.exit
  %arrayidx.i.i.i4 = getelementptr inbounds i8, ptr %16, i64 -4
  %17 = load i32, ptr %arrayidx.i.i.i4, align 4
  %18 = zext i32 %17 to i64
  %add.ptr.i.i5 = getelementptr inbounds ptr, ptr %16, i64 %18
  %cmp3.i.not.i.i6 = icmp eq i32 %17, 0
  br i1 %cmp3.i.not.i.i6, label %if.then.i.i.i.i.i20, label %for.body.i.i.i7

for.body.i.i.i7:                                  ; preds = %_ZNK6vectorIP4exprLb0EjE4sizeEv.exit.i.i3, %_ZN15ref_vector_coreI4expr19ref_manager_wrapperIS0_11ast_managerEE7dec_refEPS0_.exit.i.i.i14
  %it.04.i.i.i8 = phi ptr [ %incdec.ptr.i.i.i15, %_ZN15ref_vector_coreI4expr19ref_manager_wrapperIS0_11ast_managerEE7dec_refEPS0_.exit.i.i.i14 ], [ %16, %_ZNK6vectorIP4exprLb0EjE4sizeEv.exit.i.i3 ]
  %19 = load ptr, ptr %it.04.i.i.i8, align 8
  %20 = load ptr, ptr %m_literals, align 8
  %tobool.not.i.i.i.i.i.i9 = icmp eq ptr %19, null
  br i1 %tobool.not.i.i.i.i.i.i9, label %_ZN15ref_vector_coreI4expr19ref_manager_wrapperIS0_11ast_managerEE7dec_refEPS0_.exit.i.i.i14, label %if.then.i.i.i.i.i.i10

if.then.i.i.i.i.i.i10:                            ; preds = %for.body.i.i.i7
  %m_ref_count.i.i.i.i.i.i.i11 = getelementptr inbounds i8, ptr %19, i64 8
  %21 = load i32, ptr %m_ref_count.i.i.i.i.i.i.i11, align 4
  %dec.i.i.i.i.i.i.i12 = add i32 %21, -1
  store i32 %dec.i.i.i.i.i.i.i12, ptr %m_ref_count.i.i.i.i.i.i.i11, align 4
  %cmp.i.i.i.i.i.i13 = icmp eq i32 %dec.i.i.i.i.i.i.i12, 0
  br i1 %cmp.i.i.i.i.i.i13, label %if.then2.i.i.i.i.i.i23, label %_ZN15ref_vector_coreI4expr19ref_manager_wrapperIS0_11ast_managerEE7dec_refEPS0_.exit.i.i.i14

if.then2.i.i.i.i.i.i23:                           ; preds = %if.then.i.i.i.i.i.i10
  invoke void @_ZN11ast_manager11delete_nodeEP3ast(ptr noundef nonnull align 8 dereferenceable(976) %20, ptr noundef nonnull %19)
          to label %_ZN15ref_vector_coreI4expr19ref_manager_wrapperIS0_11ast_managerEE7dec_refEPS0_.exit.i.i.i14 unwind label %terminate.lpad.i.i24

_ZN15ref_vector_coreI4expr19ref_manager_wrapperIS0_11ast_managerEE7dec_refEPS0_.exit.i.i.i14: ; preds = %if.then2.i.i.i.i.i.i23, %if.then.i.i.i.i.i.i10, %for.body.i.i.i7
  %incdec.ptr.i.i.i15 = getelementptr inbounds i8, ptr %it.04.i.i.i8, i64 8
  %cmp.i1.i.i16 = icmp ult ptr %incdec.ptr.i.i.i15, %add.ptr.i.i5
  br i1 %cmp.i1.i.i16, label %for.body.i.i.i7, label %invoke.cont6.i.i17, !llvm.loop !4

invoke.cont6.i.i17:                               ; preds = %_ZN15ref_vector_coreI4expr19ref_manager_wrapperIS0_11ast_managerEE7dec_refEPS0_.exit.i.i.i14
  %.pre.i.i18 = load ptr, ptr %m_nodes.i.i1, align 8
  %tobool.not.i.i.i.i.i19 = icmp eq ptr %.pre.i.i18, null
  br i1 %tobool.not.i.i.i.i.i19, label %_ZN10ref_vectorI4expr11ast_managerED2Ev.exit25, label %if.then.i.i.i.i.i20

if.then.i.i.i.i.i20:                              ; preds = %invoke.cont6.i.i17, %_ZNK6vectorIP4exprLb0EjE4sizeEv.exit.i.i3
  %22 = phi ptr [ %.pre.i.i18, %invoke.cont6.i.i17 ], [ %16, %_ZNK6vectorIP4exprLb0EjE4sizeEv.exit.i.i3 ]
  %add.ptr.i.i.i.i.i.i21 = getelementptr inbounds i8, ptr %22, i64 -8
  invoke void @_ZN6memory10deallocateEPv(ptr noundef nonnull %add.ptr.i.i.i.i.i.i21)
          to label %_ZN10ref_vectorI4expr11ast_managerED2Ev.exit25 unwind label %terminate.lpad.i.i.i.i22

terminate.lpad.i.i.i.i22:                         ; preds = %if.then.i.i.i.i.i20
  %23 = landingpad { ptr, i32 }
          catch ptr null
  %24 = extractvalue { ptr, i32 } %23, 0
  tail call void @__clang_call_terminate(ptr %24) #14
  unreachable

terminate.lpad.i.i24:                             ; preds = %if.then2.i.i.i.i.i.i23
  %25 = landingpad { ptr, i32 }
          catch ptr null
  %26 = extractvalue { ptr, i32 } %25, 0
  tail call void @__clang_call_terminate(ptr %26) #14
  unreachable

_ZN10ref_vectorI4expr11ast_managerED2Ev.exit25:   ; preds = %_ZN10ref_vectorI4expr11ast_managerED2Ev.exit, %invoke.cont6.i.i17, %if.then.i.i.i.i.i20
  ret void

terminate.lpad:                                   ; preds = %entry
  %27 = landingpad { ptr, i32 }
          catch ptr null
  %28 = extractvalue { ptr, i32 } %27, 0
  tail call void @__clang_call_terminate(ptr %28) #14
  unreachable
}